target datalayout = "e-m:e-p270:32:32-p271:32:32-p272:64:64-i64:64-i128:128-f80:128-n8:16:32:64-S128"
target triple = "x86_64-pc-linux-gnu"

%struct.ForEachState = type { ptr, i32 }
%struct.List = type { i32, i32, i32, ptr, [0 x %union.ListCell] }
%union.ListCell = type { ptr }

; Function Attrs: nounwind uwtable
define internal void @RelationTruncateIndexes(ptr noundef %0) #0 {
  %2 = alloca ptr, align 8
  %3 = alloca ptr, align 8
  %4 = alloca %struct.ForEachState, align 8
  %5 = alloca i32, align 4
  %6 = alloca ptr, align 8
  %7 = alloca ptr, align 8
  store ptr %0, ptr %2, align 8
  call void @llvm.lifetime.start.p0(i64 8, ptr %3) #10
  call void @llvm.lifetime.start.p0(i64 16, ptr %4) #10
  %8 = getelementptr inbounds nuw %struct.ForEachState, ptr %4, i32 0, i32 0
  %9 = load ptr, ptr %2, align 8
  %10 = call ptr @RelationGetIndexList(ptr noundef %9)
  store ptr %10, ptr %8, align 8
  %11 = getelementptr inbounds nuw %struct.ForEachState, ptr %4, i32 0, i32 1
  store i32 0, ptr %11, align 8
  %12 = getelementptr i8, ptr %4, i64 12
  call void @llvm.memset.p0.i64(ptr align 4 %12, i8 0, i64 4, i1 false)
  br label %13

13:                                               ; preds = %51, %1
  %14 = getelementptr inbounds nuw %struct.ForEachState, ptr %4, i32 0, i32 0
  %15 = load ptr, ptr %14, align 8
  %16 = icmp ne ptr %15, null
  br i1 %16, label %17, label %34

17:                                               ; preds = %13
  %18 = getelementptr inbounds nuw %struct.ForEachState, ptr %4, i32 0, i32 1
  %19 = load i32, ptr %18, align 8
  %20 = getelementptr inbounds nuw %struct.ForEachState, ptr %4, i32 0, i32 0
  %21 = load ptr, ptr %20, align 8
  %22 = getelementptr inbounds nuw %struct.List, ptr %21, i32 0, i32 1
  %23 = load i32, ptr %22, align 4
  %24 = icmp slt i32 %19, %23
  br i1 %24, label %25, label %34

25:                                               ; preds = %17
  %26 = getelementptr inbounds nuw %struct.ForEachState, ptr %4, i32 0, i32 0
  %27 = load ptr, ptr %26, align 8
  %28 = getelementptr inbounds nuw %struct.List, ptr %27, i32 0, i32 3
  %29 = load ptr, ptr %28, align 8
  %30 = getelementptr inbounds nuw %struct.ForEachState, ptr %4, i32 0, i32 1
  %31 = load i32, ptr %30, align 8
  %32 = sext i32 %31 to i64
  %33 = getelementptr inbounds %union.ListCell, ptr %29, i64 %32
  store ptr %33, ptr %3, align 8
  br label %35

34:                                               ; preds = %17, %13
  store ptr null, ptr %3, align 8
  br label %35

35:                                               ; preds = %34, %25
  %36 = phi i32 [ 1, %25 ], [ 0, %34 ]
  %37 = icmp ne i32 %36, 0
  br i1 %37, label %39, label %38

38:                                               ; preds = %35
  call void @llvm.lifetime.end.p0(i64 16, ptr %4) #10
  br label %55

39:                                               ; preds = %35
  call void @llvm.lifetime.start.p0(i64 4, ptr %5) #10
  %40 = load ptr, ptr %3, align 8
  %41 = load i32, ptr %40, align 8
  store i32 %41, ptr %5, align 4
  call void @llvm.lifetime.start.p0(i64 8, ptr %6) #10
  call void @llvm.lifetime.start.p0(i64 8, ptr %7) #10
  %42 = load i32, ptr %5, align 4
  %43 = call ptr @index_open(i32 noundef %42, i32 noundef 8)
  store ptr %43, ptr %6, align 8
  %44 = load ptr, ptr %6, align 8
  %45 = call ptr @BuildDummyIndexInfo(ptr noundef %44)
  store ptr %45, ptr %7, align 8
  %46 = load ptr, ptr %6, align 8
  call void @RelationTruncate(ptr noundef %46, i32 noundef 0)
  %47 = load ptr, ptr %2, align 8
  %48 = load ptr, ptr %6, align 8
  %49 = load ptr, ptr %7, align 8
  call void @index_build(ptr noundef %47, ptr noundef %48, ptr noundef %49, i1 noundef zeroext true, i1 noundef zeroext false)
  %50 = load ptr, ptr %6, align 8
  call void @index_close(ptr noundef %50, i32 noundef 0)
  call void @llvm.lifetime.end.p0(i64 8, ptr %7) #10
  call void @llvm.lifetime.end.p0(i64 8, ptr %6) #10
  call void @llvm.lifetime.end.p0(i64 4, ptr %5) #10
  br label %51

51:                                               ; preds = %39
  %52 = getelementptr inbounds nuw %struct.ForEachState, ptr %4, i32 0, i32 1
  %53 = load i32, ptr %52, align 8
  %54 = add i32 %53, 1
  store i32 %54, ptr %52, align 8
  br label %13, !llvm.loop !47

55:                                               ; preds = %38
  call void @llvm.lifetime.end.p0(i64 8, ptr %3) #10
  ret void
}