; Function Attrs: nounwind uwtable
define internal fastcc void @RelationTruncateIndexes(ptr noundef %0) unnamed_addr #0 {
  %2 = tail call ptr @RelationGetIndexList(ptr noundef %0) #11
  %3 = getelementptr inbounds nuw i8, ptr %2, i64 4
  %.not = icmp eq ptr %2, null
  br i1 %.not, label %._crit_edge, label %.lr.ph

.lr.ph:                                           ; preds = %1
  %4 = getelementptr inbounds nuw i8, ptr %2, i64 16
  %5 = load i32, ptr %3, align 4
  %6 = icmp sgt i32 %5, 0
  br i1 %6, label %.lr.ph19, label %._crit_edge

._crit_edge:                                      ; preds = %.lr.ph19, %.lr.ph, %1
  ret void

.lr.ph19:                                         ; preds = %.lr.ph, %.lr.ph19
  %indvars.iv = phi i64 [ %indvars.iv.next, %.lr.ph19 ], [ 0, %.lr.ph ]
  %7 = load ptr, ptr %4, align 8
  %8 = getelementptr inbounds nuw %union.ListCell, ptr %7, i64 %indvars.iv
  %9 = load i32, ptr %8, align 8
  %10 = tail call ptr @index_open(i32 noundef %9, i32 noundef 8) #11
  %11 = tail call ptr @BuildDummyIndexInfo(ptr noundef %10) #11
  tail call void @RelationTruncate(ptr noundef %10, i32 noundef 0) #11
  tail call void @index_build(ptr noundef %0, ptr noundef %10, ptr noundef %11, i1 noundef zeroext true, i1 noundef zeroext false) #11
  tail call void @index_close(ptr noundef %10, i32 noundef 0) #11
  %indvars.iv.next = add nuw nsw i64 %indvars.iv, 1
  %12 = load i32, ptr %3, align 4
  %13 = sext i32 %12 to i64
  %14 = icmp slt i64 %indvars.iv.next, %13
  br i1 %14, label %.lr.ph19, label %._crit_edge
}